; Function Attrs: mustprogress nounwind uwtable
define dso_local noundef ptr @_ZNK4llvm24TargetLoweringObjectFile17getTTypeReferenceEPKNS_15MCSymbolRefExprEjRNS_10MCStreamerE(ptr noundef nonnull readonly align 8 captures(none) dereferenceable(968) %0, ptr noundef %1, i32 noundef %2, ptr noundef nonnull align 8 dereferenceable(288) %3) local_unnamed_addr #0 align 2 {
  %5 = and i32 %2, 112
  switch i32 %5, label %6 [
    i32 0, label %18
    i32 16, label %7
  ]

6:                                                ; preds = %4
  tail call void @_ZN4llvm18report_fatal_errorEPKcb(ptr noundef nonnull @.str.5, i1 noundef zeroext true) #19
  unreachable

7:                                                ; preds = %4
  %8 = getelementptr inbounds nuw i8, ptr %0, i64 904
  %9 = load ptr, ptr %8, align 8
  %10 = tail call noundef ptr @_ZN4llvm9MCContext16createTempSymbolEv(ptr noundef nonnull align 8 dereferenceable(2432) %9) #16
  %11 = load ptr, ptr %3, align 8
  %12 = getelementptr inbounds nuw i8, ptr %11, i64 200
  %13 = load ptr, ptr %12, align 8
  tail call void %13(ptr noundef nonnull align 8 dereferenceable(288) %3, ptr noundef %10, ptr null) #16
  %14 = load ptr, ptr %8, align 8
  %15 = tail call noundef ptr @_ZN4llvm15MCSymbolRefExpr6createEPKNS_8MCSymbolENS0_11VariantKindERNS_9MCContextENS_5SMLocE(ptr noundef %10, i16 noundef zeroext 0, ptr noundef nonnull align 8 dereferenceable(2432) %14, ptr null) #16
  %16 = load ptr, ptr %8, align 8
  %17 = tail call noundef ptr @_ZN4llvm12MCBinaryExpr6createENS0_6OpcodeEPKNS_6MCExprES4_RNS_9MCContextENS_5SMLocE(i32 noundef 18, ptr noundef %1, ptr noundef %15, ptr noundef nonnull align 8 dereferenceable(2432) %16, ptr null) #16
  br label %18

18:                                               ; preds = %4, %7
  %.0 = phi ptr [ %17, %7 ], [ %1, %4 ]
  ret ptr %.0
}